; Function Attrs: nounwind sspstrong uwtable
define internal range(i64 0, 256) i64 @tpci200_read_las3(ptr noundef %opaque, i64 noundef %addr, i32 %size) #0 {
entry:
  %shr = lshr i64 %addr, 22
  %conv = trunc i64 %shr to i32
  %0 = trunc i64 %addr to i32
  %conv1 = and i32 %0, 4194303
  %bus = getelementptr inbounds nuw i8, ptr %opaque, i64 2608
  %call = tail call ptr @ipack_device_find(ptr noundef nonnull %bus, i32 noundef %conv) #6
  %cmp = icmp eq ptr %call, null
  br i1 %cmp, label %if.end8, label %if.else

if.else:                                          ; preds = %entry
  %call.i = tail call ptr @object_get_class(ptr noundef nonnull %call) #6
  %call1.i = tail call ptr @object_class_dynamic_cast_assert(ptr noundef %call.i, ptr noundef nonnull @.str.14, ptr noundef nonnull @.str.15, i32 noundef 34, ptr noundef nonnull @__func__.IPACK_DEVICE_GET_CLASS) #6
  %mem_read8 = getelementptr inbounds nuw i8, ptr %call1.i, i64 256
  %1 = load ptr, ptr %mem_read8, align 8
  %tobool.not = icmp eq ptr %1, null
  br i1 %tobool.not, label %if.end8, label %if.then4

if.then4:                                         ; preds = %if.else
  %call6 = tail call zeroext i8 %1(ptr noundef nonnull %call, i32 noundef %conv1) #6
  %conv7 = zext i8 %call6 to i64
  br label %if.end8

if.end8:                                          ; preds = %if.else, %if.then4, %entry
  %ret.0 = phi i64 [ 0, %entry ], [ %conv7, %if.then4 ], [ 0, %if.else ]
  ret i64 %ret.0
}